; Function Attrs: mustprogress uwtable
define noundef i32 @_ZNK32pxrInternal_v0_24__pxrReserved__31UsdImagingPointInstancerAdapter12GetCullStyleERKNS_7UsdPrimERKNS_7SdfPathENS_11UsdTimeCodeE(ptr noundef nonnull align 8 dereferenceable(88) %0, ptr noundef nonnull align 8 dereferenceable(32) %1, ptr noundef nonnull align 4 dereferenceable(8) %2, double %3) unnamed_addr #0 align 2 personality ptr @__gxx_personality_v0 {
  %5 = alloca %"class.pxrInternal_v0_24__pxrReserved__::SdfPath", align 4
  %6 = alloca %"class.pxrInternal_v0_24__pxrReserved__::UsdPrim", align 8
  %7 = load ptr, ptr %0, align 8
  %8 = getelementptr inbounds i8, ptr %7, i64 352
  %9 = load ptr, ptr %8, align 8
  %10 = tail call noundef zeroext i1 %9(ptr noundef nonnull align 8 dereferenceable(88) %0, ptr noundef nonnull align 4 dereferenceable(8) %2)
  br i1 %10, label %11, label %78

11:                                               ; preds = %4
  call void @_ZNK32pxrInternal_v0_24__pxrReserved__7SdfPath13GetParentPathEv(ptr dead_on_unwind nonnull writable sret(%"class.pxrInternal_v0_24__pxrReserved__::SdfPath") align 4 %5, ptr noundef nonnull align 4 dereferenceable(8) %2)
  %12 = invoke noundef nonnull align 8 dereferenceable(53) ptr @_ZNK32pxrInternal_v0_24__pxrReserved__31UsdImagingPointInstancerAdapter13_GetProtoPrimERKNS_7SdfPathES3_(ptr noundef nonnull align 8 dereferenceable(88) %0, ptr noundef nonnull align 4 dereferenceable(8) %5, ptr noundef nonnull align 4 dereferenceable(8) %2)
          to label %13 unwind label %73

13:                                               ; preds = %11
  invoke void @_ZNK32pxrInternal_v0_24__pxrReserved__31UsdImagingPointInstancerAdapter16_GetProtoUsdPrimERKNS0_10_ProtoPrimE(ptr dead_on_unwind nonnull writable sret(%"class.pxrInternal_v0_24__pxrReserved__::UsdPrim") align 8 %6, ptr noundef nonnull align 8 dereferenceable(88) %0, ptr noundef nonnull align 8 dereferenceable(53) %12)
          to label %14 unwind label %73

14:                                               ; preds = %13
  %15 = getelementptr inbounds nuw i8, ptr %12, i64 24
  %16 = load ptr, ptr %15, align 8
  %17 = load ptr, ptr %16, align 8
  %18 = getelementptr inbounds i8, ptr %17, i64 400
  %19 = load ptr, ptr %18, align 8
  %20 = invoke noundef i32 %19(ptr noundef nonnull align 8 dereferenceable(32) %16, ptr noundef nonnull align 8 dereferenceable(32) %6, ptr noundef nonnull align 4 dereferenceable(8) %2, double %3)
          to label %21 unwind label %75

21:                                               ; preds = %14
  %22 = getelementptr inbounds nuw i8, ptr %6, i64 24
  %23 = load ptr, ptr %22, align 8
  %24 = ptrtoint ptr %23 to i64
  %25 = and i64 %24, 7
  %.not.i.i.i.i = icmp eq i64 %25, 0
  br i1 %.not.i.i.i.i, label %_ZN32pxrInternal_v0_24__pxrReserved__7TfTokenD2Ev.exit.i.i, label %26

26:                                               ; preds = %21
  %27 = and i64 %24, -8
  %28 = inttoptr i64 %27 to ptr
  %29 = atomicrmw sub ptr %28, i32 2 release, align 4
  br label %_ZN32pxrInternal_v0_24__pxrReserved__7TfTokenD2Ev.exit.i.i

_ZN32pxrInternal_v0_24__pxrReserved__7TfTokenD2Ev.exit.i.i: ; preds = %26, %21
  %30 = getelementptr inbounds nuw i8, ptr %6, i64 16
  %31 = load i32, ptr %30, align 8
  %.not.i.i1.i.i = icmp eq i32 %31, 0
  br i1 %.not.i.i1.i.i, label %_ZN32pxrInternal_v0_24__pxrReserved__7SdfPathD2Ev.exit.i.i, label %32

32:                                               ; preds = %_ZN32pxrInternal_v0_24__pxrReserved__7TfTokenD2Ev.exit.i.i
  %33 = and i32 %31, 255
  %34 = lshr i32 %31, 8
  %35 = zext nneg i32 %33 to i64
  %36 = getelementptr inbounds [257 x ptr], ptr @_ZN32pxrInternal_v0_24__pxrReserved__8Sdf_PoolINS_15Sdf_PathPrimTagELj24ELj8ELj16384EE13_regionStartsE, i64 0, i64 %35
  %37 = load ptr, ptr %36, align 8
  %38 = mul nuw nsw i32 %34, 24
  %39 = zext nneg i32 %38 to i64
  %40 = getelementptr inbounds i8, ptr %37, i64 %39
  %41 = getelementptr inbounds nuw i8, ptr %40, i64 8
  %42 = atomicrmw sub ptr %41, i32 1 seq_cst, align 4
  %43 = and i32 %42, 2147483647
  %44 = icmp eq i32 %43, 1
  br i1 %44, label %45, label %_ZN32pxrInternal_v0_24__pxrReserved__7SdfPathD2Ev.exit.i.i

45:                                               ; preds = %32
  invoke void @_ZNK32pxrInternal_v0_24__pxrReserved__12Sdf_PathNode8_DestroyEv(ptr noundef nonnull align 8 dereferenceable(16) %40)
          to label %_ZN32pxrInternal_v0_24__pxrReserved__7SdfPathD2Ev.exit.i.i unwind label %46

46:                                               ; preds = %45
  %47 = landingpad { ptr, i32 }
          catch ptr null
  %48 = extractvalue { ptr, i32 } %47, 0
  call void @__clang_call_terminate(ptr %48) #28
  unreachable

_ZN32pxrInternal_v0_24__pxrReserved__7SdfPathD2Ev.exit.i.i: ; preds = %45, %32, %_ZN32pxrInternal_v0_24__pxrReserved__7TfTokenD2Ev.exit.i.i
  %49 = getelementptr inbounds nuw i8, ptr %6, i64 8
  %50 = load ptr, ptr %49, align 8
  %.not.i.i.i.i.i = icmp eq ptr %50, null
  br i1 %.not.i.i.i.i.i, label %_ZN32pxrInternal_v0_24__pxrReserved__7UsdPrimD2Ev.exit, label %51

51:                                               ; preds = %_ZN32pxrInternal_v0_24__pxrReserved__7SdfPathD2Ev.exit.i.i
  %52 = getelementptr inbounds nuw i8, ptr %50, i64 48
  %53 = atomicrmw sub ptr %52, i64 1 release, align 8
  %.not1.i.i.i.i.i = icmp eq i64 %53, 1
  br i1 %.not1.i.i.i.i.i, label %54, label %_ZN32pxrInternal_v0_24__pxrReserved__7UsdPrimD2Ev.exit

54:                                               ; preds = %51
  call void @_ZN32pxrInternal_v0_24__pxrReserved__12Usd_PrimDataD1Ev(ptr noundef nonnull align 8 dereferenceable(64) %50) #26
  call void @_ZdlPvm(ptr noundef nonnull %50, i64 noundef 64) #27
  br label %_ZN32pxrInternal_v0_24__pxrReserved__7UsdPrimD2Ev.exit

_ZN32pxrInternal_v0_24__pxrReserved__7UsdPrimD2Ev.exit: ; preds = %_ZN32pxrInternal_v0_24__pxrReserved__7SdfPathD2Ev.exit.i.i, %51, %54
  %55 = load i32, ptr %5, align 4
  %.not.i.i = icmp eq i32 %55, 0
  br i1 %.not.i.i, label %_ZN32pxrInternal_v0_24__pxrReserved__7SdfPathD2Ev.exit, label %56

56:                                               ; preds = %_ZN32pxrInternal_v0_24__pxrReserved__7UsdPrimD2Ev.exit
  %57 = and i32 %55, 255
  %58 = lshr i32 %55, 8
  %59 = zext nneg i32 %57 to i64
  %60 = getelementptr inbounds [257 x ptr], ptr @_ZN32pxrInternal_v0_24__pxrReserved__8Sdf_PoolINS_15Sdf_PathPrimTagELj24ELj8ELj16384EE13_regionStartsE, i64 0, i64 %59
  %61 = load ptr, ptr %60, align 8
  %62 = mul nuw nsw i32 %58, 24
  %63 = zext nneg i32 %62 to i64
  %64 = getelementptr inbounds i8, ptr %61, i64 %63
  %65 = getelementptr inbounds nuw i8, ptr %64, i64 8
  %66 = atomicrmw sub ptr %65, i32 1 seq_cst, align 4
  %67 = and i32 %66, 2147483647
  %68 = icmp eq i32 %67, 1
  br i1 %68, label %69, label %_ZN32pxrInternal_v0_24__pxrReserved__7SdfPathD2Ev.exit

69:                                               ; preds = %56
  invoke void @_ZNK32pxrInternal_v0_24__pxrReserved__12Sdf_PathNode8_DestroyEv(ptr noundef nonnull align 8 dereferenceable(16) %64)
          to label %_ZN32pxrInternal_v0_24__pxrReserved__7SdfPathD2Ev.exit unwind label %70

70:                                               ; preds = %69
  %71 = landingpad { ptr, i32 }
          catch ptr null
  %72 = extractvalue { ptr, i32 } %71, 0
  call void @__clang_call_terminate(ptr %72) #28
  unreachable

73:                                               ; preds = %13, %11
  %74 = landingpad { ptr, i32 }
          cleanup
  br label %77

75:                                               ; preds = %14
  %76 = landingpad { ptr, i32 }
          cleanup
  call void @_ZN32pxrInternal_v0_24__pxrReserved__7UsdPrimD2Ev(ptr noundef nonnull align 8 dereferenceable(32) %6) #26
  br label %77

77:                                               ; preds = %75, %73
  %.pn = phi { ptr, i32 } [ %76, %75 ], [ %74, %73 ]
  call void @_ZN32pxrInternal_v0_24__pxrReserved__7SdfPathD2Ev(ptr noundef nonnull align 4 dereferenceable(8) %5) #26
  resume { ptr, i32 } %.pn

78:                                               ; preds = %4
  %79 = tail call noundef i32 @_ZNK32pxrInternal_v0_24__pxrReserved__21UsdImagingPrimAdapter12GetCullStyleERKNS_7UsdPrimERKNS_7SdfPathENS_11UsdTimeCodeE(ptr noundef nonnull align 8 dereferenceable(32) %0, ptr noundef nonnull align 8 dereferenceable(32) %1, ptr noundef nonnull align 4 dereferenceable(8) %2, double %3)
  br label %_ZN32pxrInternal_v0_24__pxrReserved__7SdfPathD2Ev.exit

_ZN32pxrInternal_v0_24__pxrReserved__7SdfPathD2Ev.exit: ; preds = %69, %56, %_ZN32pxrInternal_v0_24__pxrReserved__7UsdPrimD2Ev.exit, %78
  %.0 = phi i32 [ %79, %78 ], [ %20, %_ZN32pxrInternal_v0_24__pxrReserved__7UsdPrimD2Ev.exit ], [ %20, %56 ], [ %20, %69 ]
  ret i32 %.0
}